; Function Attrs: mustprogress nofree norecurse nosync nounwind willreturn memory(read, inaccessiblemem: none) uwtable
define i64 @H5T_get_member_offset(ptr nocapture noundef readonly %0, i32 noundef %1) local_unnamed_addr #2 {
  %3 = getelementptr inbounds i8, ptr %0, i64 40
  %4 = load ptr, ptr %3, align 8
  %5 = getelementptr inbounds i8, ptr %4, i64 64
  %6 = load ptr, ptr %5, align 8
  %7 = zext i32 %1 to i64
  %8 = getelementptr inbounds %struct.H5T_cmemb_t, ptr %6, i64 %7, i32 1
  %9 = load i64, ptr %8, align 8
  ret i64 %9
}